; Function Attrs: mustprogress uwtable
define void @_ZN10open_spiel10phantom_go14PhantomGoBoardC2Ei(ptr nocapture noundef nonnull align 8 dereferenceable(8706) %0, i32 noundef %1) unnamed_addr #8 align 2 personality ptr @__gxx_personality_v0 {
  %3 = alloca %"class.std::__cxx11::basic_string", align 8
  %4 = alloca %"class.absl::debian2::AlphaNum", align 8
  %5 = alloca %"class.absl::debian2::AlphaNum", align 8
  %6 = getelementptr inbounds nuw i8, ptr %0, i64 8696
  store i32 %1, ptr %6, align 8
  %7 = getelementptr inbounds nuw i8, ptr %0, i64 8700
  %8 = mul nsw i32 %1, %1
  store i32 %8, ptr %7, align 4
  %9 = icmp sgt i32 %1, 19
  br i1 %9, label %_ZN4absl7debian28AlphaNumC2EPKc.exit, label %22

_ZN4absl7debian28AlphaNumC2EPKc.exit:             ; preds = %2
  store ptr @.str.11, ptr %4, align 8
  %10 = getelementptr inbounds nuw i8, ptr %4, i64 8
  store i64 70, ptr %10, align 8
  %11 = getelementptr inbounds nuw i8, ptr %5, i64 16
  %12 = call noundef ptr @_ZN4absl7debian216numbers_internal15FastIntToBufferEiPc(i32 noundef %1, ptr noundef nonnull %11)
  %13 = ptrtoint ptr %12 to i64
  %14 = ptrtoint ptr %11 to i64
  %15 = sub i64 %13, %14
  store ptr %11, ptr %5, align 8
  %16 = icmp sgt i64 %15, -1
  br i1 %16, label %_ZN4absl7debian28AlphaNumC2Ei.exit, label %17

17:                                               ; preds = %_ZN4absl7debian28AlphaNumC2EPKc.exit
  call void @llvm.trap()
  unreachable

_ZN4absl7debian28AlphaNumC2Ei.exit:               ; preds = %_ZN4absl7debian28AlphaNumC2EPKc.exit
  %18 = getelementptr inbounds nuw i8, ptr %5, i64 8
  store i64 %15, ptr %18, align 8
  call void @_ZN4absl7debian26StrCatB5cxx11ERKNS0_8AlphaNumES3_(ptr dead_on_unwind nonnull writable sret(%"class.std::__cxx11::basic_string") align 8 %3, ptr noundef nonnull align 8 dereferenceable(48) %4, ptr noundef nonnull align 8 dereferenceable(48) %5)
  invoke void @_ZN10open_spiel15SpielFatalErrorERKNSt7__cxx1112basic_stringIcSt11char_traitsIcESaIcEEE(ptr noundef nonnull align 8 dereferenceable(32) %3) #27
          to label %19 unwind label %20

19:                                               ; preds = %_ZN4absl7debian28AlphaNumC2Ei.exit
  unreachable

20:                                               ; preds = %_ZN4absl7debian28AlphaNumC2Ei.exit
  %21 = landingpad { ptr, i32 }
          cleanup
  call void @_ZNSt7__cxx1112basic_stringIcSt11char_traitsIcESaIcEED1Ev(ptr noundef nonnull align 8 dereferenceable(32) %3) #26
  resume { ptr, i32 } %21

22:                                               ; preds = %2
  tail call void @_ZN10open_spiel10phantom_go14PhantomGoBoard5ClearEv(ptr noundef nonnull align 8 dereferenceable(8706) %0)
  ret void
}